; Function Attrs: nounwind uwtable
define i32 @glfwGetError(ptr noundef writeonly captures(address_is_null) %0) local_unnamed_addr #2 {
  %2 = icmp ne ptr %0, null
  br i1 %2, label %3, label %4

3:                                                ; preds = %1
  store ptr null, ptr %0, align 8, !tbaa !98
  br label %4

4:                                                ; preds = %3, %1
  %5 = load i32, ptr @_glfw, align 8, !tbaa !99
  %.not = icmp eq i32 %5, 0
  br i1 %.not, label %.thread, label %6

6:                                                ; preds = %4
  %7 = tail call ptr @_glfwPlatformGetTls(ptr noundef nonnull getelementptr inbounds nuw (i8, ptr @_glfw, i64 133404)) #21
  %.not13 = icmp eq ptr %7, null
  br i1 %.not13, label %13, label %.thread

.thread:                                          ; preds = %4, %6
  %.01016 = phi ptr [ %7, %6 ], [ @_glfwMainThreadError, %4 ]
  %8 = getelementptr inbounds nuw i8, ptr %.01016, i64 8
  %9 = load i32, ptr %8, align 8, !tbaa !103
  store i32 0, ptr %8, align 8, !tbaa !103
  %10 = icmp ne i32 %9, 0
  %or.cond = select i1 %2, i1 %10, i1 false
  br i1 %or.cond, label %11, label %13

11:                                               ; preds = %.thread
  %12 = getelementptr inbounds nuw i8, ptr %.01016, i64 12
  store ptr %12, ptr %0, align 8, !tbaa !98
  br label %13

13:                                               ; preds = %.thread, %11, %6
  %.0 = phi i32 [ %9, %11 ], [ %9, %.thread ], [ 0, %6 ]
  ret i32 %.0
}